	.file	"blake3l.c"
	.text
	.p2align 4,,15
	.globl	blake3_compress_in_place_portable
	.type	blake3_compress_in_place_portable, @function
blake3_compress_in_place_portable:
.LFB4764:
	.cfi_startproc
	pushq	%r15
	.cfi_def_cfa_offset 16
	.cfi_offset 15, -16
	pushq	%r14
	.cfi_def_cfa_offset 24
	.cfi_offset 14, -24
	movl	%edx, %r15d
	pushq	%r13
	.cfi_def_cfa_offset 32
	.cfi_offset 13, -32
	pushq	%r12
	.cfi_def_cfa_offset 40
	.cfi_offset 12, -40
	pushq	%rbp
	.cfi_def_cfa_offset 48
	.cfi_offset 6, -48
	pushq	%rbx
	.cfi_def_cfa_offset 56
	.cfi_offset 3, -56
	movl	12(%rsi), %eax
	movl	20(%rsi), %edx
	movl	32(%rsi), %r9d
	movl	36(%rsi), %r14d
	movl	28(%rsi), %ebx
	movl	52(%rsi), %ebp
	movl	%eax, -80(%rsp)
	movl	24(%rsi), %eax
	movl	%edx, -76(%rsp)
	movl	%r9d, -64(%rsp)
	movl	%r14d, -60(%rsp)
	movl	40(%rsi), %edx
	movl	%eax, -72(%rsp)
	movl	44(%rsi), %r9d
	movl	48(%rsi), %r14d
	movl	56(%rsi), %eax
	movl	(%rsi), %r11d
	movl	4(%rsi), %r13d
	movl	8(%rsi), %r10d
	movl	16(%rsi), %r12d
	movl	%ebx, -68(%rsp)
	movl	%edx, -56(%rsp)
	movl	%r9d, -52(%rsp)
	movl	%r14d, -48(%rsp)
	movl	%ebp, -44(%rsp)
	movl	%eax, -40(%rsp)
	movq	%rdi, %rax
	movl	60(%rsi), %esi
	movl	24(%rdi), %ebp
	movl	16(%rdi), %ebx
	movl	20(%rdi), %r9d
	movl	28(%rdi), %edx
	movl	(%rdi), %edi
	movl	%r11d, -32(%rsp)
	movl	%r13d, -28(%rsp)
	movl	%esi, -36(%rsp)
	movl	%r12d, -20(%rsp)
	addl	%ebx, %edi
	movl	%r10d, -24(%rsp)
	movl	%edi, %r14d
	addl	%r11d, %r14d
	movl	%r14d, %edi
	addl	%r13d, %r14d
	movl	4(%rax), %r13d
	xorl	%ecx, %edi
	shrq	$32, %rcx
	roll	$16, %edi
	leal	1779033703(%rdi), %r11d
	addl	%r10d, %r13d
	addl	%r9d, %r13d
	xorl	%r11d, %ebx
	rorl	$12, %ebx
	addl	%ebx, %r14d
	xorl	%r14d, %edi
	rorl	$8, %edi
	addl	%edi, %r11d
	xorl	%r11d, %ebx
	movl	%ebx, %esi
	movq	%rax, %rbx
	movq	%rcx, %rax
	xorl	%r13d, %eax
	addl	8(%rbx), %r12d
	addl	-80(%rsp), %r13d
	roll	$16, %eax
	rorl	$7, %esi
	movl	%ebp, %ecx
	leal	-1150833019(%rax), %r10d
	movl	%esi, -16(%rsp)
	movzbl	%r15b, %esi
	movq	%rbx, -8(%rsp)
	xorl	%r10d, %r9d
	addl	%ebp, %r12d
	movl	-72(%rsp), %ebp
	rorl	$12, %r9d
	xorl	%r12d, %esi
	addl	%r9d, %r13d
	roll	$16, %esi
	xorl	%r13d, %eax
	leal	1013904242(%rsi), %r15d
	rorl	$8, %eax
	addl	%eax, %r10d
	xorl	%r15d, %ecx
	xorl	%r10d, %r9d
	rorl	$7, %r9d
	rorl	$12, %ecx
	addl	12(%rbx), %ebp
	movzbl	%r8b, %ebx
	addl	-76(%rsp), %r12d
	addl	-64(%rsp), %r14d
	addl	%edx, %ebp
	xorl	%ebp, %ebx
	addl	-68(%rsp), %ebp
	addl	%ecx, %r12d
	roll	$16, %ebx
	addl	%r9d, %r14d
	xorl	%r12d, %esi
	leal	-1521486534(%rbx), %r8d
	rorl	$8, %esi
	addl	%esi, %r15d
	xorl	%r8d, %edx
	xorl	%r15d, %ecx
	rorl	$12, %edx
	rorl	$7, %ecx
	addl	%edx, %ebp
	xorl	%ebp, %ebx
	rorl	$8, %ebx
	addl	%ebx, %r8d
	xorl	%r14d, %ebx
	addl	-60(%rsp), %r14d
	roll	$16, %ebx
	xorl	%r8d, %edx
	addl	%ebx, %r15d
	rorl	$7, %edx
	xorl	%r15d, %r9d
	rorl	$12, %r9d
	addl	%r9d, %r14d
	xorl	%r14d, %ebx
	rorl	$8, %ebx
	addl	%ebx, %r15d
	addl	-56(%rsp), %r13d
	addl	-48(%rsp), %r12d
	addl	-40(%rsp), %ebp
	movl	%ebx, -12(%rsp)
	xorl	%r15d, %r9d
	movl	-16(%rsp), %ebx
	rorl	$7, %r9d
	addl	%ecx, %r13d
	addl	%edx, %r12d
	xorl	%r13d, %edi
	xorl	%r12d, %eax
	addl	-52(%rsp), %r13d
	addl	-44(%rsp), %r12d
	roll	$16, %edi
	roll	$16, %eax
	addl	%edi, %r8d
	addl	%eax, %r11d
	xorl	%r8d, %ecx
	xorl	%r11d, %edx
	rorl	$12, %ecx
	rorl	$12, %edx
	addl	%ecx, %r13d
	addl	%edx, %r12d
	xorl	%r13d, %edi
	xorl	%r12d, %eax
	rorl	$8, %edi
	rorl	$8, %eax
	addl	%edi, %r8d
	addl	%eax, %r11d
	xorl	%r8d, %ecx
	xorl	%r11d, %edx
	rorl	$7, %ecx
	rorl	$7, %edx
	addl	%ebx, %ebp
	xorl	%ebp, %esi
	addl	-36(%rsp), %ebp
	addl	-24(%rsp), %r14d
	roll	$16, %esi
	addl	%esi, %r10d
	xorl	%r10d, %ebx
	rorl	$12, %ebx
	addl	%ebx, %ebp
	xorl	%ebp, %esi
	rorl	$8, %esi
	addl	%esi, %r10d
	xorl	%r10d, %ebx
	rorl	$7, %ebx
	addl	%ebx, %r14d
	xorl	%r14d, %edi
	addl	-72(%rsp), %r14d
	roll	$16, %edi
	addl	%edi, %r11d
	xorl	%r11d, %ebx
	rorl	$12, %ebx
	addl	%ebx, %r14d
	xorl	%r14d, %edi
	rorl	$8, %edi
	addl	%edi, %r11d
	xorl	%r11d, %ebx
	rorl	$7, %ebx
	movl	%ebx, -16(%rsp)
	addl	-80(%rsp), %r13d
	movl	-12(%rsp), %ebx
	addl	%r9d, %r13d
	xorl	%r13d, %eax
	roll	$16, %eax
	addl	%eax, %r10d
	xorl	%r10d, %r9d
	addl	-68(%rsp), %r12d
	addl	-20(%rsp), %ebp
	addl	-56(%rsp), %r13d
	rorl	$12, %r9d
	addl	%ecx, %r12d
	addl	%edx, %ebp
	xorl	%r12d, %esi
	addl	-32(%rsp), %r12d
	xorl	%ebp, %ebx
	roll	$16, %esi
	addl	%r9d, %r13d
	addl	-44(%rsp), %ebp
	addl	%esi, %r15d
	roll	$16, %ebx
	xorl	%r13d, %eax
	xorl	%r15d, %ecx
	addl	%ebx, %r8d
	rorl	$8, %eax
	rorl	$12, %ecx
	xorl	%r8d, %edx
	addl	%eax, %r10d
	addl	%ecx, %r12d
	rorl	$12, %edx
	xorl	%r10d, %r9d
	xorl	%r12d, %esi
	addl	%edx, %ebp
	rorl	$7, %r9d
	rorl	$8, %esi
	addl	%esi, %r15d
	xorl	%r15d, %ecx
	rorl	$7, %ecx
	xorl	%ebp, %ebx
	addl	-28(%rsp), %r14d
	addl	-48(%rsp), %r13d
	rorl	$8, %ebx
	addl	%ebx, %r8d
	xorl	%r8d, %edx
	addl	%r9d, %r14d
	rorl	$7, %edx
	addl	%ecx, %r13d
	xorl	%r14d, %ebx
	addl	-52(%rsp), %r14d
	xorl	%r13d, %edi
	roll	$16, %ebx
	addl	-76(%rsp), %r13d
	roll	$16, %edi
	addl	%ebx, %r15d
	addl	%edi, %r8d
	xorl	%r15d, %r9d
	xorl	%r8d, %ecx
	rorl	$12, %r9d
	rorl	$12, %ecx
	addl	%r9d, %r14d
	addl	%ecx, %r13d
	xorl	%r14d, %ebx
	xorl	%r13d, %edi
	rorl	$8, %ebx
	rorl	$8, %edi
	addl	%ebx, %r15d
	movl	%ebx, -12(%rsp)
	addl	%edi, %r8d
	xorl	%r15d, %r9d
	movl	-16(%rsp), %ebx
	xorl	%r8d, %ecx
	rorl	$7, %r9d
	rorl	$7, %ecx
	addl	-36(%rsp), %ebp
	addl	-60(%rsp), %r12d
	addl	-80(%rsp), %r14d
	addl	%ebx, %ebp
	addl	%edx, %r12d
	xorl	%ebp, %esi
	addl	-64(%rsp), %ebp
	xorl	%r12d, %eax
	roll	$16, %esi
	addl	-40(%rsp), %r12d
	roll	$16, %eax
	addl	%esi, %r10d
	addl	%eax, %r11d
	xorl	%r10d, %ebx
	xorl	%r11d, %edx
	rorl	$12, %ebx
	rorl	$12, %edx
	addl	%ebx, %ebp
	addl	%edx, %r12d
	xorl	%ebp, %esi
	xorl	%r12d, %eax
	rorl	$8, %esi
	rorl	$8, %eax
	addl	%esi, %r10d
	addl	%eax, %r11d
	xorl	%r10d, %ebx
	xorl	%r11d, %edx
	rorl	$7, %ebx
	rorl	$7, %edx
	addl	%ebx, %r14d
	xorl	%r14d, %edi
	roll	$16, %edi
	addl	-56(%rsp), %r13d
	addl	-20(%rsp), %r14d
	addl	-44(%rsp), %r12d
	addl	%edi, %r11d
	xorl	%r11d, %ebx
	rorl	$12, %ebx
	addl	%r9d, %r13d
	addl	%ebx, %r14d
	xorl	%r13d, %eax
	addl	-48(%rsp), %r13d
	addl	%ecx, %r12d
	roll	$16, %eax
	xorl	%r14d, %edi
	xorl	%r12d, %esi
	addl	%eax, %r10d
	rorl	$8, %edi
	roll	$16, %esi
	xorl	%r10d, %r9d
	addl	%edi, %r11d
	addl	%esi, %r15d
	rorl	$12, %r9d
	xorl	%r11d, %ebx
	xorl	%r15d, %ecx
	addl	%r9d, %r13d
	rorl	$7, %ebx
	rorl	$12, %ecx
	xorl	%r13d, %eax
	movl	%ebx, -16(%rsp)
	movl	-12(%rsp), %ebx
	rorl	$8, %eax
	addl	%eax, %r10d
	xorl	%r10d, %r9d
	rorl	$7, %r9d
	addl	-24(%rsp), %r12d
	addl	-68(%rsp), %ebp
	addl	-72(%rsp), %r14d
	addl	%edx, %ebp
	addl	%ecx, %r12d
	xorl	%ebp, %ebx
	addl	-40(%rsp), %ebp
	addl	%r9d, %r14d
	roll	$16, %ebx
	xorl	%r12d, %esi
	addl	%ebx, %r8d
	rorl	$8, %esi
	xorl	%r8d, %edx
	addl	%esi, %r15d
	rorl	$12, %edx
	xorl	%r15d, %ecx
	addl	%edx, %ebp
	rorl	$7, %ecx
	xorl	%ebp, %ebx
	rorl	$8, %ebx
	addl	%ebx, %r8d
	xorl	%r14d, %ebx
	addl	-76(%rsp), %r14d
	roll	$16, %ebx
	xorl	%r8d, %edx
	addl	%ebx, %r15d
	rorl	$7, %edx
	xorl	%r15d, %r9d
	rorl	$12, %r9d
	addl	%r9d, %r14d
	xorl	%r14d, %ebx
	rorl	$8, %ebx
	addl	%ebx, %r15d
	addl	-60(%rsp), %r13d
	movl	%ebx, -12(%rsp)
	xorl	%r15d, %r9d
	rorl	$7, %r9d
	addl	%ecx, %r13d
	xorl	%r13d, %edi
	addl	-32(%rsp), %r13d
	addl	-52(%rsp), %r12d
	roll	$16, %edi
	addl	-64(%rsp), %ebp
	movl	-16(%rsp), %ebx
	addl	%edi, %r8d
	xorl	%r8d, %ecx
	addl	%edx, %r12d
	rorl	$12, %ecx
	xorl	%r12d, %eax
	addl	-36(%rsp), %r12d
	addl	%ecx, %r13d
	roll	$16, %eax
	xorl	%r13d, %edi
	addl	%eax, %r11d
	rorl	$8, %edi
	xorl	%r11d, %edx
	addl	%edi, %r8d
	rorl	$12, %edx
	xorl	%r8d, %ecx
	addl	%edx, %r12d
	rorl	$7, %ecx
	xorl	%r12d, %eax
	rorl	$8, %eax
	addl	%eax, %r11d
	xorl	%r11d, %edx
	rorl	$7, %edx
	addl	%ebx, %ebp
	addl	-56(%rsp), %r14d
	xorl	%ebp, %esi
	addl	-28(%rsp), %ebp
	addl	-48(%rsp), %r13d
	roll	$16, %esi
	addl	%esi, %r10d
	xorl	%r10d, %ebx
	rorl	$12, %ebx
	addl	%r9d, %r13d
	addl	%ebx, %ebp
	xorl	%r13d, %eax
	xorl	%ebp, %esi
	roll	$16, %eax
	rorl	$8, %esi
	addl	%esi, %r10d
	xorl	%r10d, %ebx
	addl	%eax, %r10d
	rorl	$7, %ebx
	addl	%ebx, %r14d
	xorl	%r14d, %edi
	addl	-68(%rsp), %r14d
	roll	$16, %edi
	addl	%edi, %r11d
	xorl	%r11d, %ebx
	rorl	$12, %ebx
	addl	%ebx, %r14d
	xorl	%r14d, %edi
	rorl	$8, %edi
	addl	%edi, %r11d
	xorl	%r11d, %ebx
	rorl	$7, %ebx
	xorl	%r10d, %r9d
	addl	-40(%rsp), %r12d
	addl	-44(%rsp), %ebp
	movl	%ebx, -16(%rsp)
	rorl	$12, %r9d
	addl	-60(%rsp), %r13d
	movl	-12(%rsp), %ebx
	addl	%ecx, %r12d
	xorl	%r12d, %esi
	addl	-80(%rsp), %r12d
	addl	%edx, %ebp
	roll	$16, %esi
	xorl	%ebp, %ebx
	addl	%r9d, %r13d
	addl	%esi, %r15d
	addl	-36(%rsp), %ebp
	roll	$16, %ebx
	xorl	%r15d, %ecx
	xorl	%r13d, %eax
	addl	%ebx, %r8d
	rorl	$12, %ecx
	rorl	$8, %eax
	xorl	%r8d, %edx
	addl	%ecx, %r12d
	addl	%eax, %r10d
	rorl	$12, %edx
	xorl	%r12d, %esi
	xorl	%r10d, %r9d
	addl	%edx, %ebp
	rorl	$8, %esi
	rorl	$7, %r9d
	addl	%esi, %r15d
	xorl	%r15d, %ecx
	rorl	$7, %ecx
	xorl	%ebp, %ebx
	addl	-20(%rsp), %r14d
	addl	-52(%rsp), %r13d
	rorl	$8, %ebx
	addl	%ebx, %r8d
	xorl	%r8d, %edx
	addl	%r9d, %r14d
	rorl	$7, %edx
	addl	%ecx, %r13d
	xorl	%r14d, %ebx
	addl	-32(%rsp), %r14d
	xorl	%r13d, %edi
	roll	$16, %ebx
	addl	-24(%rsp), %r13d
	roll	$16, %edi
	addl	%ebx, %r15d
	addl	%edi, %r8d
	xorl	%r15d, %r9d
	xorl	%r8d, %ecx
	rorl	$12, %r9d
	rorl	$12, %ecx
	addl	%r9d, %r14d
	addl	%ecx, %r13d
	xorl	%r14d, %ebx
	xorl	%r13d, %edi
	rorl	$8, %ebx
	rorl	$8, %edi
	addl	%ebx, %r15d
	movl	%ebx, -12(%rsp)
	addl	%edi, %r8d
	xorl	%r15d, %r9d
	movl	-16(%rsp), %ebx
	xorl	%r8d, %ecx
	rorl	$7, %r9d
	rorl	$7, %ecx
	addl	-28(%rsp), %ebp
	addl	-76(%rsp), %r12d
	addl	-48(%rsp), %r14d
	addl	%ebx, %ebp
	addl	%edx, %r12d
	xorl	%ebp, %esi
	addl	-72(%rsp), %ebp
	xorl	%r12d, %eax
	roll	$16, %esi
	addl	-64(%rsp), %r12d
	roll	$16, %eax
	addl	%esi, %r10d
	addl	%eax, %r11d
	xorl	%r10d, %ebx
	xorl	%r11d, %edx
	rorl	$12, %ebx
	rorl	$12, %edx
	addl	%ebx, %ebp
	addl	%edx, %r12d
	xorl	%ebp, %esi
	xorl	%r12d, %eax
	rorl	$8, %esi
	rorl	$8, %eax
	addl	%esi, %r10d
	addl	%eax, %r11d
	xorl	%r10d, %ebx
	xorl	%r11d, %edx
	rorl	$7, %ebx
	rorl	$7, %edx
	addl	%ebx, %r14d
	xorl	%r14d, %edi
	roll	$16, %edi
	addl	-60(%rsp), %r13d
	addl	-44(%rsp), %r14d
	addl	%edi, %r11d
	addl	-36(%rsp), %r12d
	xorl	%r11d, %ebx
	rorl	$12, %ebx
	addl	%r9d, %r13d
	addl	%ebx, %r14d
	xorl	%r13d, %eax
	addl	-52(%rsp), %r13d
	xorl	%r14d, %edi
	roll	$16, %eax
	addl	%ecx, %r12d
	rorl	$8, %edi
	addl	%eax, %r10d
	xorl	%r12d, %esi
	addl	%edi, %r11d
	xorl	%r10d, %r9d
	roll	$16, %esi
	xorl	%r11d, %ebx
	rorl	$12, %r9d
	addl	%esi, %r15d
	rorl	$7, %ebx
	addl	%r9d, %r13d
	xorl	%r15d, %ecx
	movl	%ebx, -16(%rsp)
	xorl	%r13d, %eax
	rorl	$12, %ecx
	rorl	$8, %eax
	addl	%eax, %r10d
	xorl	%r10d, %r9d
	rorl	$7, %r9d
	addl	-56(%rsp), %r12d
	addl	-40(%rsp), %ebp
	movl	-12(%rsp), %ebx
	addl	-68(%rsp), %r14d
	addl	%edx, %ebp
	addl	%ecx, %r12d
	xorl	%ebp, %ebx
	addl	-64(%rsp), %ebp
	addl	%r9d, %r14d
	roll	$16, %ebx
	xorl	%r12d, %esi
	addl	%ebx, %r8d
	rorl	$8, %esi
	xorl	%r8d, %edx
	addl	%esi, %r15d
	rorl	$12, %edx
	xorl	%r15d, %ecx
	addl	%edx, %ebp
	rorl	$7, %ecx
	xorl	%ebp, %ebx
	rorl	$8, %ebx
	addl	%ebx, %r8d
	xorl	%r14d, %ebx
	addl	-24(%rsp), %r14d
	roll	$16, %ebx
	xorl	%r8d, %edx
	addl	%ebx, %r15d
	rorl	$7, %edx
	xorl	%r15d, %r9d
	rorl	$12, %r9d
	addl	%r9d, %r14d
	xorl	%r14d, %ebx
	rorl	$8, %ebx
	addl	%ebx, %r15d
	addl	-76(%rsp), %r13d
	addl	-32(%rsp), %r12d
	addl	-72(%rsp), %ebp
	movl	%ebx, -12(%rsp)
	xorl	%r15d, %r9d
	movl	-16(%rsp), %ebx
	rorl	$7, %r9d
	addl	%ecx, %r13d
	addl	%edx, %r12d
	xorl	%r13d, %edi
	xorl	%r12d, %eax
	addl	-80(%rsp), %r13d
	addl	-28(%rsp), %r12d
	roll	$16, %edi
	roll	$16, %eax
	addl	%edi, %r8d
	addl	%eax, %r11d
	xorl	%r8d, %ecx
	xorl	%r11d, %edx
	rorl	$12, %ecx
	rorl	$12, %edx
	addl	%ecx, %r13d
	addl	%edx, %r12d
	xorl	%r13d, %edi
	xorl	%r12d, %eax
	rorl	$8, %edi
	rorl	$8, %eax
	addl	%edi, %r8d
	addl	%eax, %r11d
	xorl	%r8d, %ecx
	xorl	%r11d, %edx
	rorl	$7, %ecx
	rorl	$7, %edx
	addl	%ebx, %ebp
	xorl	%ebp, %esi
	addl	-20(%rsp), %ebp
	addl	-60(%rsp), %r14d
	roll	$16, %esi
	addl	-52(%rsp), %r13d
	addl	%esi, %r10d
	xorl	%r10d, %ebx
	rorl	$12, %ebx
	addl	%ebx, %ebp
	addl	%r9d, %r13d
	xorl	%ebp, %esi
	xorl	%r13d, %eax
	rorl	$8, %esi
	roll	$16, %eax
	addl	%esi, %r10d
	xorl	%r10d, %ebx
	addl	%eax, %r10d
	rorl	$7, %ebx
	addl	%ebx, %r14d
	xorl	%r14d, %edi
	addl	-40(%rsp), %r14d
	roll	$16, %edi
	addl	%edi, %r11d
	xorl	%r11d, %ebx
	rorl	$12, %ebx
	addl	%ebx, %r14d
	xorl	%r14d, %edi
	rorl	$8, %edi
	addl	%edi, %r11d
	xorl	%r11d, %ebx
	rorl	$7, %ebx
	xorl	%r10d, %r9d
	addl	-64(%rsp), %r12d
	addl	-36(%rsp), %ebp
	movl	%ebx, -16(%rsp)
	rorl	$12, %r9d
	addl	-76(%rsp), %r13d
	movl	-12(%rsp), %ebx
	addl	%ecx, %r12d
	xorl	%r12d, %esi
	addl	-48(%rsp), %r12d
	addl	%edx, %ebp
	roll	$16, %esi
	xorl	%ebp, %ebx
	addl	%r9d, %r13d
	addl	%esi, %r15d
	addl	-28(%rsp), %ebp
	roll	$16, %ebx
	xorl	%r15d, %ecx
	xorl	%r13d, %eax
	addl	%ebx, %r8d
	rorl	$12, %ecx
	rorl	$8, %eax
	xorl	%r8d, %edx
	addl	%ecx, %r12d
	addl	%eax, %r10d
	rorl	$12, %edx
	xorl	%r12d, %esi
	xorl	%r10d, %r9d
	addl	%edx, %ebp
	rorl	$8, %esi
	rorl	$7, %r9d
	addl	%esi, %r15d
	xorl	%r15d, %ecx
	rorl	$7, %ecx
	xorl	%ebp, %ebx
	addl	-44(%rsp), %r14d
	addl	-32(%rsp), %r13d
	rorl	$8, %ebx
	addl	%ebx, %r8d
	xorl	%r8d, %edx
	addl	%r9d, %r14d
	rorl	$7, %edx
	addl	%ecx, %r13d
	xorl	%r14d, %ebx
	addl	-80(%rsp), %r14d
	xorl	%r13d, %edi
	roll	$16, %ebx
	addl	-56(%rsp), %r13d
	roll	$16, %edi
	addl	%ebx, %r15d
	addl	%edi, %r8d
	xorl	%r15d, %r9d
	xorl	%r8d, %ecx
	rorl	$12, %r9d
	rorl	$12, %ecx
	addl	%r9d, %r14d
	addl	%ecx, %r13d
	xorl	%r14d, %ebx
	xorl	%r13d, %edi
	rorl	$8, %ebx
	rorl	$8, %edi
	addl	%ebx, %r15d
	addl	%edi, %r8d
	xorl	%r15d, %r9d
	movl	%r15d, -12(%rsp)
	xorl	%r8d, %ecx
	rorl	$7, %r9d
	movl	-16(%rsp), %r15d
	rorl	$7, %ecx
	addl	-20(%rsp), %ebp
	addl	-24(%rsp), %r12d
	addl	%r15d, %ebp
	addl	%edx, %r12d
	xorl	%ebp, %esi
	xorl	%r12d, %eax
	addl	-72(%rsp), %r12d
	roll	$16, %esi
	addl	-68(%rsp), %ebp
	roll	$16, %eax
	addl	%esi, %r10d
	addl	%eax, %r11d
	addl	-52(%rsp), %r14d
	xorl	%r10d, %r15d
	xorl	%r11d, %edx
	rorl	$12, %r15d
	rorl	$12, %edx
	addl	%r15d, %ebp
	addl	%edx, %r12d
	xorl	%ebp, %esi
	xorl	%r12d, %eax
	rorl	$8, %esi
	rorl	$8, %eax
	addl	%esi, %r10d
	addl	%eax, %r11d
	xorl	%r10d, %r15d
	xorl	%r11d, %edx
	rorl	$7, %r15d
	rorl	$7, %edx
	addl	%r15d, %r14d
	xorl	%r14d, %edi
	roll	$16, %edi
	addl	-76(%rsp), %r13d
	addl	-36(%rsp), %r14d
	addl	%edi, %r11d
	addl	-28(%rsp), %r12d
	xorl	%r11d, %r15d
	rorl	$12, %r15d
	addl	%r15d, %r14d
	addl	%r9d, %r13d
	xorl	%r14d, %edi
	xorl	%r13d, %eax
	addl	-32(%rsp), %r13d
	rorl	$8, %edi
	roll	$16, %eax
	addl	%ecx, %r12d
	addl	%edi, %r11d
	addl	%eax, %r10d
	xorl	%r12d, %esi
	xorl	%r11d, %r15d
	xorl	%r10d, %r9d
	roll	$16, %esi
	rorl	$7, %r15d
	rorl	$12, %r9d
	movl	%r15d, -52(%rsp)
	addl	%r9d, %r13d
	movl	-12(%rsp), %r15d
	xorl	%r13d, %eax
	rorl	$8, %eax
	addl	%eax, %r10d
	addl	%esi, %r15d
	xorl	%r10d, %r9d
	xorl	%r15d, %ecx
	rorl	$7, %r9d
	rorl	$12, %ecx
	addl	-60(%rsp), %r12d
	addl	-64(%rsp), %ebp
	addl	-40(%rsp), %r14d
	addl	%ecx, %r12d
	addl	%edx, %ebp
	addl	%r9d, %r14d
	xorl	%r12d, %esi
	xorl	%ebp, %ebx
	addl	-72(%rsp), %ebp
	rorl	$8, %esi
	roll	$16, %ebx
	addl	%esi, %r15d
	addl	%ebx, %r8d
	xorl	%r15d, %ecx
	xorl	%r8d, %edx
	rorl	$7, %ecx
	rorl	$12, %edx
	addl	%edx, %ebp
	xorl	%ebp, %ebx
	rorl	$8, %ebx
	addl	%ebx, %r8d
	xorl	%r14d, %ebx
	addl	-56(%rsp), %r14d
	roll	$16, %ebx
	xorl	%r8d, %edx
	addl	%ebx, %r15d
	rorl	$7, %edx
	xorl	%r15d, %r9d
	rorl	$12, %r9d
	addl	%r9d, %r14d
	movl	%r9d, -76(%rsp)
	xorl	%r14d, %ebx
	rorl	$8, %ebx
	addl	-24(%rsp), %r13d
	addl	-80(%rsp), %r12d
	addl	-68(%rsp), %ebp
	leal	(%r15,%rbx), %r9d
	movl	-52(%rsp), %r15d
	movl	%r9d, -72(%rsp)
	movq	-8(%rsp), %r9
	addl	%ecx, %r13d
	addl	%edx, %r12d
	xorl	%r13d, %edi
	xorl	%r12d, %eax
	addl	-48(%rsp), %r13d
	addl	-20(%rsp), %r12d
	roll	$16, %edi
	roll	$16, %eax
	addl	%edi, %r8d
	addl	%eax, %r11d
	addl	%r15d, %ebp
	xorl	%r8d, %ecx
	xorl	%r11d, %edx
	xorl	%ebp, %esi
	rorl	$12, %ecx
	rorl	$12, %edx
	roll	$16, %esi
	addl	-44(%rsp), %ebp
	addl	%ecx, %r13d
	addl	%edx, %r12d
	addl	%esi, %r10d
	xorl	%r13d, %edi
	xorl	%r12d, %eax
	xorl	%r10d, %r15d
	rorl	$8, %edi
	rorl	$8, %eax
	rorl	$12, %r15d
	addl	%edi, %r8d
	addl	%eax, %r11d
	addl	%r15d, %ebp
	xorl	%r11d, %r14d
	xorl	%r8d, %ecx
	xorl	%ebp, %esi
	movl	%r14d, (%r9)
	movq	%r9, %r14
	rorl	$8, %esi
	xorl	%r11d, %edx
	rorl	$7, %ecx
	addl	%esi, %r10d
	rorl	$7, %edx
	xorl	%r8d, %ebp
	xorl	%r10d, %r13d
	xorl	%r15d, %r10d
	xorl	%edx, %ebx
	movl	%r13d, 4(%r9)
	movl	-72(%rsp), %r9d
	rorl	$7, %r10d
	xorl	%r10d, %edi
	xorl	%ecx, %esi
	movl	%ebp, 12(%r14)
	movl	%edi, 16(%r14)
	movl	%esi, 24(%r14)
	xorl	%r9d, %r12d
	xorl	-76(%rsp), %r9d
	movl	%r12d, 8(%r14)
	rorl	$7, %r9d
	xorl	%r9d, %eax
	movl	%eax, 20(%r14)
	movl	%ebx, 28(%r14)
	popq	%rbx
	.cfi_def_cfa_offset 48
	popq	%rbp
	.cfi_def_cfa_offset 40
	popq	%r12
	.cfi_def_cfa_offset 32
	popq	%r13
	.cfi_def_cfa_offset 24
	popq	%r14
	.cfi_def_cfa_offset 16
	popq	%r15
	.cfi_def_cfa_offset 8
	ret
	.cfi_endproc
.LFE4764:
	.size	blake3_compress_in_place_portable, .-blake3_compress_in_place_portable
	.ident	"GCC: (SUSE Linux) 7.5.0"
	.section	.note.GNU-stack,"",@progbits
